target datalayout = "e-m:e-p270:32:32-p271:32:32-p272:64:64-i64:64-i128:128-f80:128-n8:16:32:64-S128"
target triple = "x86_64-pc-linux-gnu"

%struct.Vec_Int_t_ = type { i32, i32, ptr }

; Function Attrs: nounwind uwtable
define internal i32 @Gia_ManAppendMux2(ptr noundef %0, i32 noundef %1, i32 noundef %2, i32 noundef %3) #0 {
  %5 = alloca ptr, align 8
  %6 = alloca i32, align 4
  %7 = alloca i32, align 4
  %8 = alloca i32, align 4
  %9 = alloca i32, align 4
  %10 = alloca i32, align 4
  store ptr %0, ptr %5, align 8
  store i32 %1, ptr %6, align 4
  store i32 %2, ptr %7, align 4
  store i32 %3, ptr %8, align 4
  %11 = load ptr, ptr %5, align 8
  %12 = load i32, ptr %6, align 4
  %13 = call i32 @Abc_LitNot(i32 noundef %12)
  %14 = load i32, ptr %8, align 4
  %15 = call i32 @Gia_ManAppendAnd2(ptr noundef %11, i32 noundef %13, i32 noundef %14)
  store i32 %15, ptr %9, align 4
  %16 = load ptr, ptr %5, align 8
  %17 = load i32, ptr %6, align 4
  %18 = load i32, ptr %7, align 4
  %19 = call i32 @Gia_ManAppendAnd2(ptr noundef %16, i32 noundef %17, i32 noundef %18)
  store i32 %19, ptr %10, align 4
  %20 = load ptr, ptr %5, align 8
  %21 = load i32, ptr %9, align 4
  %22 = call i32 @Abc_LitNot(i32 noundef %21)
  %23 = load i32, ptr %10, align 4
  %24 = call i32 @Abc_LitNot(i32 noundef %23)
  %25 = call i32 @Gia_ManAppendAnd2(ptr noundef %20, i32 noundef %22, i32 noundef %24)
  %26 = call i32 @Abc_LitNotCond(i32 noundef %25, i32 noundef 1)
  ret i32 %26
}

; Function Attrs: nounwind uwtable
define internal i32 @Abc_LitNot(i32 noundef %0) #0 {
  %2 = alloca i32, align 4
  store i32 %0, ptr %2, align 4
  %3 = load i32, ptr %2, align 4
  %4 = xor i32 %3, 1
  ret i32 %4
}

; Function Attrs: nounwind uwtable
define internal void @Vec_IntWriteEntry(ptr noundef %0, i32 noundef %1, i32 noundef %2) #0 {
  %4 = alloca ptr, align 8
  %5 = alloca i32, align 4
  %6 = alloca i32, align 4
  store ptr %0, ptr %4, align 8
  store i32 %1, ptr %5, align 4
  store i32 %2, ptr %6, align 4
  %7 = load i32, ptr %6, align 4
  %8 = load ptr, ptr %4, align 8
  %9 = getelementptr inbounds %struct.Vec_Int_t_, ptr %8, i32 0, i32 2
  %10 = load ptr, ptr %9, align 8
  %11 = load i32, ptr %5, align 4
  %12 = sext i32 %11 to i64
  %13 = getelementptr inbounds i32, ptr %10, i64 %12
  store i32 %7, ptr %13, align 4
  ret void
}

; Function Attrs: nounwind uwtable
define internal i32 @Gia_ManAppendXor2(ptr noundef %0, i32 noundef %1, i32 noundef %2) #0 {
  %4 = alloca ptr, align 8
  %5 = alloca i32, align 4
  %6 = alloca i32, align 4
  store ptr %0, ptr %4, align 8
  store i32 %1, ptr %5, align 4
  store i32 %2, ptr %6, align 4
  %7 = load ptr, ptr %4, align 8
  %8 = load i32, ptr %5, align 4
  %9 = load i32, ptr %6, align 4
  %10 = call i32 @Abc_LitNot(i32 noundef %9)
  %11 = load i32, ptr %6, align 4
  %12 = call i32 @Gia_ManAppendMux2(ptr noundef %7, i32 noundef %8, i32 noundef %10, i32 noundef %11)
  ret i32 %12
}

; Function Attrs: nounwind uwtable
define internal i32 @Gia_ManAppendOr2(ptr noundef %0, i32 noundef %1, i32 noundef %2) #0 {
  %4 = alloca ptr, align 8
  %5 = alloca i32, align 4
  %6 = alloca i32, align 4
  store ptr %0, ptr %4, align 8
  store i32 %1, ptr %5, align 4
  store i32 %2, ptr %6, align 4
  %7 = load ptr, ptr %4, align 8
  %8 = load i32, ptr %5, align 4
  %9 = call i32 @Abc_LitNot(i32 noundef %8)
  %10 = load i32, ptr %6, align 4
  %11 = call i32 @Abc_LitNot(i32 noundef %10)
  %12 = call i32 @Gia_ManAppendAnd2(ptr noundef %7, i32 noundef %9, i32 noundef %11)
  %13 = call i32 @Abc_LitNot(i32 noundef %12)
  ret i32 %13
}

; Function Attrs: nounwind uwtable
define internal i32 @Abc_LitNotCond(i32 noundef %0, i32 noundef %1) #0 {
  %3 = alloca i32, align 4
  %4 = alloca i32, align 4
  store i32 %0, ptr %3, align 4
  store i32 %1, ptr %4, align 4
  %5 = load i32, ptr %3, align 4
  %6 = load i32, ptr %4, align 4
  %7 = icmp sgt i32 %6, 0
  %8 = zext i1 %7 to i32
  %9 = xor i32 %5, %8
  ret i32 %9
}

; Function Attrs: nounwind uwtable
define internal ptr @Vec_IntEntryP(ptr noundef %0, i32 noundef %1) #0 {
  %3 = alloca ptr, align 8
  %4 = alloca i32, align 4
  store ptr %0, ptr %3, align 8
  store i32 %1, ptr %4, align 4
  %5 = load ptr, ptr %3, align 8
  %6 = getelementptr inbounds %struct.Vec_Int_t_, ptr %5, i32 0, i32 2
  %7 = load ptr, ptr %6, align 8
  %8 = load i32, ptr %4, align 4
  %9 = sext i32 %8 to i64
  %10 = getelementptr inbounds i32, ptr %7, i64 %9
  ret ptr %10
}

; Function Attrs: nounwind uwtable
define internal i32 @Vec_IntEntry(ptr noundef %0, i32 noundef %1) #0 {
  %3 = alloca ptr, align 8
  %4 = alloca i32, align 4
  store ptr %0, ptr %3, align 8
  store i32 %1, ptr %4, align 4
  %5 = load ptr, ptr %3, align 8
  %6 = getelementptr inbounds %struct.Vec_Int_t_, ptr %5, i32 0, i32 2
  %7 = load ptr, ptr %6, align 8
  %8 = load i32, ptr %4, align 4
  %9 = sext i32 %8 to i64
  %10 = getelementptr inbounds i32, ptr %7, i64 %9
  %11 = load i32, ptr %10, align 4
  ret i32 %11
}

; Function Attrs: nounwind uwtable
define i32 @Gia_FileSimpleParse_rec(ptr noundef %0, i32 noundef %1, ptr noundef %2, ptr noundef %3, ptr noundef %4, ptr noundef %5) #0 {
  %7 = alloca i32, align 4
  %8 = alloca ptr, align 8
  %9 = alloca i32, align 4
  %10 = alloca ptr, align 8
  %11 = alloca ptr, align 8
  %12 = alloca ptr, align 8
  %13 = alloca ptr, align 8
  %14 = alloca i32, align 4
  %15 = alloca ptr, align 8
  %16 = alloca [16 x i32], align 16
  %17 = alloca i32, align 4
  %18 = alloca i32, align 4
  %19 = alloca i32, align 4
  %20 = alloca i32, align 4
  %21 = alloca i32, align 4
  store ptr %0, ptr %8, align 8
  store i32 %1, ptr %9, align 4
  store ptr %2, ptr %10, align 8
  store ptr %3, ptr %11, align 8
  store ptr %4, ptr %12, align 8
  store ptr %5, ptr %13, align 8
  %22 = load ptr, ptr %10, align 8
  %23 = load i32, ptr %9, align 4
  %24 = call i32 @Vec_IntEntry(ptr noundef %22, i32 noundef %23)
  store i32 %24, ptr %20, align 4
  %25 = load ptr, ptr %13, align 8
  %26 = load i32, ptr %9, align 4
  %27 = call i32 @Vec_IntEntry(ptr noundef %25, i32 noundef %26)
  store i32 %27, ptr %21, align 4
  %28 = load i32, ptr %21, align 4
  %29 = icmp sge i32 %28, 0
  br i1 %29, label %30, label %32

30:                                               ; preds = %6
  %31 = load i32, ptr %21, align 4
  store i32 %31, ptr %7, align 4
  br label %199

32:                                               ; preds = %6
  %33 = load ptr, ptr %10, align 8
  %34 = load i32, ptr %9, align 4
  %35 = call i32 @Vec_IntEntry(ptr noundef %33, i32 noundef %34)
  store i32 %35, ptr %20, align 4
  %36 = load ptr, ptr %11, align 8
  %37 = load i32, ptr %20, align 4
  %38 = call i32 @Vec_IntEntry(ptr noundef %36, i32 noundef %37)
  store i32 %38, ptr %18, align 4
  %39 = load ptr, ptr %11, align 8
  %40 = load i32, ptr %20, align 4
  %41 = add nsw i32 %40, 1
  %42 = call i32 @Vec_IntEntry(ptr noundef %39, i32 noundef %41)
  store i32 %42, ptr %19, align 4
  %43 = load ptr, ptr %11, align 8
  %44 = load i32, ptr %20, align 4
  %45 = add nsw i32 %44, 3
  %46 = call i32 @Vec_IntEntry(ptr noundef %43, i32 noundef %45)
  %47 = load i32, ptr %19, align 4
  %48 = sub nsw i32 %46, %47
  %49 = sub nsw i32 %48, 1
  store i32 %49, ptr %14, align 4
  %50 = load ptr, ptr %12, align 8
  %51 = load i32, ptr %19, align 4
  %52 = add nsw i32 %51, 1
  %53 = call ptr @Vec_IntEntryP(ptr noundef %50, i32 noundef %52)
  store ptr %53, ptr %15, align 8
  store i32 0, ptr %17, align 4
  br label %54

54:                                               ; preds = %70, %32
  %55 = load i32, ptr %17, align 4
  %56 = load i32, ptr %14, align 4
  %57 = icmp slt i32 %55, %56
  br i1 %57, label %58, label %73

58:                                               ; preds = %54
  %59 = load ptr, ptr %8, align 8
  %60 = load ptr, ptr %15, align 8
  %61 = load i32, ptr %17, align 4
  %62 = sext i32 %61 to i64
  %63 = getelementptr inbounds i32, ptr %60, i64 %62
  %64 = load i32, ptr %63, align 4
  %65 = load ptr, ptr %10, align 8
  %66 = load ptr, ptr %11, align 8
  %67 = load ptr, ptr %12, align 8
  %68 = load ptr, ptr %13, align 8
  %69 = call i32 @Gia_FileSimpleParse_rec(ptr noundef %59, i32 noundef %64, ptr noundef %65, ptr noundef %66, ptr noundef %67, ptr noundef %68)
  br label %70

70:                                               ; preds = %58
  %71 = load i32, ptr %17, align 4
  %72 = add nsw i32 %71, 1
  store i32 %72, ptr %17, align 4
  br label %54, !llvm.loop !19

73:                                               ; preds = %54
  store i32 0, ptr %17, align 4
  br label %74

74:                                               ; preds = %89, %73
  %75 = load i32, ptr %17, align 4
  %76 = load i32, ptr %14, align 4
  %77 = icmp slt i32 %75, %76
  br i1 %77, label %78, label %92

78:                                               ; preds = %74
  %79 = load ptr, ptr %13, align 8
  %80 = load ptr, ptr %15, align 8
  %81 = load i32, ptr %17, align 4
  %82 = sext i32 %81 to i64
  %83 = getelementptr inbounds i32, ptr %80, i64 %82
  %84 = load i32, ptr %83, align 4
  %85 = call i32 @Vec_IntEntry(ptr noundef %79, i32 noundef %84)
  %86 = load i32, ptr %17, align 4
  %87 = sext i32 %86 to i64
  %88 = getelementptr inbounds [16 x i32], ptr %16, i64 0, i64 %87
  store i32 %85, ptr %88, align 4
  br label %89

89:                                               ; preds = %78
  %90 = load i32, ptr %17, align 4
  %91 = add nsw i32 %90, 1
  store i32 %91, ptr %17, align 4
  br label %74, !llvm.loop !20

92:                                               ; preds = %74
  %93 = load i32, ptr %14, align 4
  %94 = icmp eq i32 %93, 1
  br i1 %94, label %95, label %106

95:                                               ; preds = %92
  %96 = getelementptr inbounds [16 x i32], ptr %16, i64 0, i64 0
  %97 = load i32, ptr %96, align 16
  %98 = load i32, ptr %18, align 4
  %99 = icmp eq i32 %98, 7
  %100 = zext i1 %99 to i32
  %101 = call i32 @Abc_LitNotCond(i32 noundef %97, i32 noundef %100)
  store i32 %101, ptr %21, align 4
  %102 = load ptr, ptr %8, align 8
  %103 = load i32, ptr %21, align 4
  %104 = load i32, ptr %21, align 4
  %105 = call i32 @Gia_ManAppendAnd2(ptr noundef %102, i32 noundef %103, i32 noundef %104)
  store i32 %105, ptr %21, align 4
  br label %194

106:                                              ; preds = %92
  %107 = getelementptr inbounds [16 x i32], ptr %16, i64 0, i64 0
  %108 = load i32, ptr %107, align 16
  store i32 %108, ptr %21, align 4
  %109 = load i32, ptr %18, align 4
  %110 = icmp eq i32 %109, 8
  br i1 %110, label %114, label %111

111:                                              ; preds = %106
  %112 = load i32, ptr %18, align 4
  %113 = icmp eq i32 %112, 9
  br i1 %113, label %114, label %131

114:                                              ; preds = %111, %106
  store i32 1, ptr %17, align 4
  br label %115

115:                                              ; preds = %127, %114
  %116 = load i32, ptr %17, align 4
  %117 = load i32, ptr %14, align 4
  %118 = icmp slt i32 %116, %117
  br i1 %118, label %119, label %130

119:                                              ; preds = %115
  %120 = load ptr, ptr %8, align 8
  %121 = load i32, ptr %21, align 4
  %122 = load i32, ptr %17, align 4
  %123 = sext i32 %122 to i64
  %124 = getelementptr inbounds [16 x i32], ptr %16, i64 0, i64 %123
  %125 = load i32, ptr %124, align 4
  %126 = call i32 @Gia_ManAppendAnd2(ptr noundef %120, i32 noundef %121, i32 noundef %125)
  store i32 %126, ptr %21, align 4
  br label %127

127:                                              ; preds = %119
  %128 = load i32, ptr %17, align 4
  %129 = add nsw i32 %128, 1
  store i32 %129, ptr %17, align 4
  br label %115, !llvm.loop !21

130:                                              ; preds = %115
  br label %180

131:                                              ; preds = %111
  %132 = load i32, ptr %18, align 4
  %133 = icmp eq i32 %132, 10
  br i1 %133, label %137, label %134

134:                                              ; preds = %131
  %135 = load i32, ptr %18, align 4
  %136 = icmp eq i32 %135, 11
  br i1 %136, label %137, label %154

137:                                              ; preds = %134, %131
  store i32 1, ptr %17, align 4
  br label %138

138:                                              ; preds = %150, %137
  %139 = load i32, ptr %17, align 4
  %140 = load i32, ptr %14, align 4
  %141 = icmp slt i32 %139, %140
  br i1 %141, label %142, label %153

142:                                              ; preds = %138
  %143 = load ptr, ptr %8, align 8
  %144 = load i32, ptr %21, align 4
  %145 = load i32, ptr %17, align 4
  %146 = sext i32 %145 to i64
  %147 = getelementptr inbounds [16 x i32], ptr %16, i64 0, i64 %146
  %148 = load i32, ptr %147, align 4
  %149 = call i32 @Gia_ManAppendOr2(ptr noundef %143, i32 noundef %144, i32 noundef %148)
  store i32 %149, ptr %21, align 4
  br label %150

150:                                              ; preds = %142
  %151 = load i32, ptr %17, align 4
  %152 = add nsw i32 %151, 1
  store i32 %152, ptr %17, align 4
  br label %138, !llvm.loop !22

153:                                              ; preds = %138
  br label %179

154:                                              ; preds = %134
  %155 = load i32, ptr %18, align 4
  %156 = icmp eq i32 %155, 12
  br i1 %156, label %160, label %157

157:                                              ; preds = %154
  %158 = load i32, ptr %18, align 4
  %159 = icmp eq i32 %158, 13
  br i1 %159, label %160, label %177

160:                                              ; preds = %157, %154
  store i32 1, ptr %17, align 4
  br label %161

161:                                              ; preds = %173, %160
  %162 = load i32, ptr %17, align 4
  %163 = load i32, ptr %14, align 4
  %164 = icmp slt i32 %162, %163
  br i1 %164, label %165, label %176

165:                                              ; preds = %161
  %166 = load ptr, ptr %8, align 8
  %167 = load i32, ptr %21, align 4
  %168 = load i32, ptr %17, align 4
  %169 = sext i32 %168 to i64
  %170 = getelementptr inbounds [16 x i32], ptr %16, i64 0, i64 %169
  %171 = load i32, ptr %170, align 4
  %172 = call i32 @Gia_ManAppendXor2(ptr noundef %166, i32 noundef %167, i32 noundef %171)
  store i32 %172, ptr %21, align 4
  br label %173

173:                                              ; preds = %165
  %174 = load i32, ptr %17, align 4
  %175 = add nsw i32 %174, 1
  store i32 %175, ptr %17, align 4
  br label %161, !llvm.loop !23

176:                                              ; preds = %161
  br label %178

177:                                              ; preds = %157
  br label %178

178:                                              ; preds = %177, %176
  br label %179

179:                                              ; preds = %178, %153
  br label %180

180:                                              ; preds = %179, %130
  %181 = load i32, ptr %21, align 4
  %182 = load i32, ptr %18, align 4
  %183 = icmp eq i32 %182, 9
  br i1 %183, label %190, label %184

184:                                              ; preds = %180
  %185 = load i32, ptr %18, align 4
  %186 = icmp eq i32 %185, 11
  br i1 %186, label %190, label %187

187:                                              ; preds = %184
  %188 = load i32, ptr %18, align 4
  %189 = icmp eq i32 %188, 13
  br label %190

190:                                              ; preds = %187, %184, %180
  %191 = phi i1 [ true, %184 ], [ true, %180 ], [ %189, %187 ]
  %192 = zext i1 %191 to i32
  %193 = call i32 @Abc_LitNotCond(i32 noundef %181, i32 noundef %192)
  store i32 %193, ptr %21, align 4
  br label %194

194:                                              ; preds = %190, %95
  %195 = load ptr, ptr %13, align 8
  %196 = load i32, ptr %9, align 4
  %197 = load i32, ptr %21, align 4
  call void @Vec_IntWriteEntry(ptr noundef %195, i32 noundef %196, i32 noundef %197)
  %198 = load i32, ptr %21, align 4
  store i32 %198, ptr %7, align 4
  br label %199

199:                                              ; preds = %194, %30
  %200 = load i32, ptr %7, align 4
  ret i32 %200
}