; Function Attrs: nounwind uwtable
define i32 @Gia_FileSimpleParse_rec(ptr noundef %0, i32 noundef %1, ptr noundef readonly captures(none) %2, ptr noundef readonly captures(none) %3, ptr noundef readonly captures(none) %4, ptr noundef readonly captures(none) %5) local_unnamed_addr #0 {
  %7 = alloca [16 x i32], align 16
  %8 = sext i32 %1 to i64
  %9 = getelementptr i8, ptr %5, i64 8
  %.val92 = load ptr, ptr %9, align 8
  %10 = getelementptr inbounds i32, ptr %.val92, i64 %8
  %11 = load i32, ptr %10, align 4
  %12 = icmp sgt i32 %11, -1
  br i1 %12, label %79, label %13

13:                                               ; preds = %6
  %14 = getelementptr i8, ptr %2, i64 8
  %.val93 = load ptr, ptr %14, align 8
  %15 = getelementptr inbounds i32, ptr %.val93, i64 %8
  %16 = load i32, ptr %15, align 4
  %17 = getelementptr i8, ptr %3, i64 8
  %.val90 = load ptr, ptr %17, align 8
  %18 = sext i32 %16 to i64
  %19 = getelementptr i32, ptr %.val90, i64 %18
  %20 = load i32, ptr %19, align 4
  %21 = getelementptr i8, ptr %19, i64 4
  %22 = load i32, ptr %21, align 4
  %23 = getelementptr i8, ptr %19, i64 12
  %24 = load i32, ptr %23, align 4
  %25 = xor i32 %22, -1
  %26 = add i32 %24, %25
  %27 = getelementptr i8, ptr %4, i64 8
  %.val94 = load ptr, ptr %27, align 8
  %28 = sext i32 %22 to i64
  %29 = getelementptr i32, ptr %.val94, i64 %28
  %30 = getelementptr i8, ptr %29, i64 4
  %31 = icmp sgt i32 %26, 0
  br i1 %31, label %.lr.ph.preheader, label %._crit_edge.thread

.lr.ph.preheader:                                 ; preds = %13
  %wide.trip.count = zext nneg i32 %26 to i64
  br label %.lr.ph

.lr.ph103:                                        ; preds = %.lr.ph
  %.val = load ptr, ptr %9, align 8
  %wide.trip.count123 = zext nneg i32 %26 to i64
  br label %35

.lr.ph:                                           ; preds = %.lr.ph.preheader, %.lr.ph
  %indvars.iv = phi i64 [ 0, %.lr.ph.preheader ], [ %indvars.iv.next, %.lr.ph ]
  %32 = getelementptr inbounds nuw i32, ptr %30, i64 %indvars.iv
  %33 = load i32, ptr %32, align 4
  %34 = tail call i32 @Gia_FileSimpleParse_rec(ptr noundef %0, i32 noundef %33, ptr noundef %2, ptr noundef %3, ptr noundef %4, ptr noundef %5)
  %indvars.iv.next = add nuw nsw i64 %indvars.iv, 1
  %exitcond.not = icmp eq i64 %indvars.iv.next, %wide.trip.count
  br i1 %exitcond.not, label %.lr.ph103, label %.lr.ph, !llvm.loop !19

35:                                               ; preds = %.lr.ph103, %35
  %indvars.iv120 = phi i64 [ 0, %.lr.ph103 ], [ %indvars.iv.next121, %35 ]
  %36 = getelementptr inbounds nuw i32, ptr %30, i64 %indvars.iv120
  %37 = load i32, ptr %36, align 4
  %38 = sext i32 %37 to i64
  %39 = getelementptr inbounds i32, ptr %.val, i64 %38
  %40 = load i32, ptr %39, align 4
  %41 = getelementptr inbounds nuw [16 x i32], ptr %7, i64 0, i64 %indvars.iv120
  store i32 %40, ptr %41, align 4
  %indvars.iv.next121 = add nuw nsw i64 %indvars.iv120, 1
  %exitcond124.not = icmp eq i64 %indvars.iv.next121, %wide.trip.count123
  br i1 %exitcond124.not, label %._crit_edge, label %35, !llvm.loop !20

._crit_edge:                                      ; preds = %35
  %42 = icmp eq i32 %26, 1
  br i1 %42, label %43, label %._crit_edge.thread

43:                                               ; preds = %._crit_edge
  %44 = load i32, ptr %7, align 16
  %45 = icmp eq i32 %20, 7
  %46 = zext i1 %45 to i32
  %47 = xor i32 %44, %46
  %48 = tail call fastcc i32 @Gia_ManAppendAnd2(ptr noundef %0, i32 noundef %47, i32 noundef %47)
  br label %77

._crit_edge.thread:                               ; preds = %13, %._crit_edge
  %49 = load i32, ptr %7, align 16
  %50 = and i32 %20, -2
  switch i32 %50, label %.loopexit [
    i32 8, label %.preheader
    i32 10, label %.preheader96
    i32 12, label %.preheader98
  ]

.preheader98:                                     ; preds = %._crit_edge.thread
  %51 = icmp sgt i32 %26, 1
  br i1 %51, label %.lr.ph106.preheader, label %.loopexit

.lr.ph106.preheader:                              ; preds = %.preheader98
  %wide.trip.count128 = zext nneg i32 %26 to i64
  br label %.lr.ph106

.preheader96:                                     ; preds = %._crit_edge.thread
  %52 = icmp sgt i32 %26, 1
  br i1 %52, label %.lr.ph109.preheader, label %.loopexit

.lr.ph109.preheader:                              ; preds = %.preheader96
  %wide.trip.count133 = zext nneg i32 %26 to i64
  %53 = xor i32 %49, 1
  br label %.lr.ph109

.preheader:                                       ; preds = %._crit_edge.thread
  %54 = icmp sgt i32 %26, 1
  br i1 %54, label %.lr.ph113.preheader, label %.loopexit

.lr.ph113.preheader:                              ; preds = %.preheader
  %wide.trip.count138 = zext nneg i32 %26 to i64
  br label %.lr.ph113

.lr.ph113:                                        ; preds = %.lr.ph113.preheader, %.lr.ph113
  %indvars.iv135 = phi i64 [ 1, %.lr.ph113.preheader ], [ %indvars.iv.next136, %.lr.ph113 ]
  %.1112 = phi i32 [ %49, %.lr.ph113.preheader ], [ %57, %.lr.ph113 ]
  %55 = getelementptr inbounds nuw [16 x i32], ptr %7, i64 0, i64 %indvars.iv135
  %56 = load i32, ptr %55, align 4
  %57 = tail call fastcc i32 @Gia_ManAppendAnd2(ptr noundef %0, i32 noundef %.1112, i32 noundef %56)
  %indvars.iv.next136 = add nuw nsw i64 %indvars.iv135, 1
  %exitcond139.not = icmp eq i64 %indvars.iv.next136, %wide.trip.count138
  br i1 %exitcond139.not, label %.loopexit, label %.lr.ph113, !llvm.loop !21

.lr.ph109:                                        ; preds = %.lr.ph109.preheader, %.lr.ph109
  %indvars.iv130 = phi i64 [ 1, %.lr.ph109.preheader ], [ %indvars.iv.next131, %.lr.ph109 ]
  %.3108 = phi i32 [ %53, %.lr.ph109.preheader ], [ %61, %.lr.ph109 ]
  %58 = getelementptr inbounds nuw [16 x i32], ptr %7, i64 0, i64 %indvars.iv130
  %59 = load i32, ptr %58, align 4
  %60 = xor i32 %59, 1
  %61 = tail call fastcc i32 @Gia_ManAppendAnd2(ptr noundef %0, i32 noundef %.3108, i32 noundef %60)
  %indvars.iv.next131 = add nuw nsw i64 %indvars.iv130, 1
  %exitcond134.not = icmp eq i64 %indvars.iv.next131, %wide.trip.count133
  br i1 %exitcond134.not, label %.loopexit.loopexit115, label %.lr.ph109, !llvm.loop !22

.lr.ph106:                                        ; preds = %.lr.ph106.preheader, %.lr.ph106
  %indvars.iv125 = phi i64 [ 1, %.lr.ph106.preheader ], [ %indvars.iv.next126, %.lr.ph106 ]
  %.4105 = phi i32 [ %49, %.lr.ph106.preheader ], [ %71, %.lr.ph106 ]
  %62 = getelementptr inbounds nuw [16 x i32], ptr %7, i64 0, i64 %indvars.iv125
  %63 = load i32, ptr %62, align 4
  %64 = xor i32 %63, 1
  %65 = xor i32 %.4105, 1
  %66 = tail call fastcc i32 @Gia_ManAppendAnd2(ptr noundef %0, i32 noundef %65, i32 noundef %63)
  %67 = tail call fastcc i32 @Gia_ManAppendAnd2(ptr noundef %0, i32 noundef %.4105, i32 noundef %64)
  %68 = xor i32 %66, 1
  %69 = xor i32 %67, 1
  %70 = tail call fastcc i32 @Gia_ManAppendAnd2(ptr noundef %0, i32 noundef %68, i32 noundef %69)
  %71 = xor i32 %70, 1
  %indvars.iv.next126 = add nuw nsw i64 %indvars.iv125, 1
  %exitcond129.not = icmp eq i64 %indvars.iv.next126, %wide.trip.count128
  br i1 %exitcond129.not, label %.loopexit, label %.lr.ph106, !llvm.loop !23

.loopexit.loopexit115:                            ; preds = %.lr.ph109
  %72 = xor i32 %61, 1
  br label %.loopexit

.loopexit:                                        ; preds = %.lr.ph106, %.lr.ph113, %.loopexit.loopexit115, %.preheader98, %.preheader96, %.preheader, %._crit_edge.thread
  %.2 = phi i32 [ %49, %._crit_edge.thread ], [ %49, %.preheader ], [ %49, %.preheader96 ], [ %49, %.preheader98 ], [ %72, %.loopexit.loopexit115 ], [ %57, %.lr.ph113 ], [ %71, %.lr.ph106 ]
  %73 = and i32 %20, -3
  %or.cond7 = icmp eq i32 %73, 9
  %74 = icmp eq i32 %20, 13
  %narrow = or i1 %74, %or.cond7
  %75 = zext i1 %narrow to i32
  %76 = xor i32 %.2, %75
  br label %77

77:                                               ; preds = %.loopexit, %43
  %.0 = phi i32 [ %48, %43 ], [ %76, %.loopexit ]
  %.val95 = load ptr, ptr %9, align 8
  %78 = getelementptr inbounds i32, ptr %.val95, i64 %8
  store i32 %.0, ptr %78, align 4
  br label %79

79:                                               ; preds = %6, %77
  %.078 = phi i32 [ %.0, %77 ], [ %11, %6 ]
  ret i32 %.078
}